target datalayout = "e-m:e-p270:32:32-p271:32:32-p272:64:64-i64:64-i128:128-f80:128-n8:16:32:64-S128"
target triple = "x86_64-pc-linux-gnu"

%struct.Kit_DsdNtk_t_ = type { i16, i16, i16, i16, ptr, ptr, ptr }
%struct.Kit_DsdObj_t_ = type { i32, [0 x i16] }

; Function Attrs: inlinehint nounwind uwtable
define internal i32 @Kit_DsdLitSupport(ptr noundef %0, i32 noundef %1) #4 {
  %3 = alloca ptr, align 8
  %4 = alloca i32, align 4
  %5 = alloca i32, align 4
  store ptr %0, ptr %3, align 8, !tbaa !37
  store i32 %1, ptr %4, align 4, !tbaa !3
  call void @llvm.lifetime.start.p0(i64 4, ptr %5) #9
  %6 = load i32, ptr %4, align 4, !tbaa !3
  %7 = call i32 @Abc_Lit2Var(i32 noundef %6)
  store i32 %7, ptr %5, align 4, !tbaa !3
  %8 = load ptr, ptr %3, align 8, !tbaa !37
  %9 = getelementptr inbounds nuw %struct.Kit_DsdNtk_t_, ptr %8, i32 0, i32 5
  %10 = load ptr, ptr %9, align 8, !tbaa !50
  %11 = icmp ne ptr %10, null
  br i1 %11, label %12, label %37

12:                                               ; preds = %2
  %13 = load i32, ptr %5, align 4, !tbaa !3
  %14 = load ptr, ptr %3, align 8, !tbaa !37
  %15 = getelementptr inbounds nuw %struct.Kit_DsdNtk_t_, ptr %14, i32 0, i32 0
  %16 = load i16, ptr %15, align 8, !tbaa !41
  %17 = zext i16 %16 to i32
  %18 = icmp slt i32 %13, %17
  br i1 %18, label %19, label %22

19:                                               ; preds = %12
  %20 = load i32, ptr %5, align 4, !tbaa !3
  %21 = shl i32 1, %20
  br label %35

22:                                               ; preds = %12
  %23 = load ptr, ptr %3, align 8, !tbaa !37
  %24 = getelementptr inbounds nuw %struct.Kit_DsdNtk_t_, ptr %23, i32 0, i32 5
  %25 = load ptr, ptr %24, align 8, !tbaa !50
  %26 = load i32, ptr %5, align 4, !tbaa !3
  %27 = load ptr, ptr %3, align 8, !tbaa !37
  %28 = getelementptr inbounds nuw %struct.Kit_DsdNtk_t_, ptr %27, i32 0, i32 0
  %29 = load i16, ptr %28, align 8, !tbaa !41
  %30 = zext i16 %29 to i32
  %31 = sub nsw i32 %26, %30
  %32 = sext i32 %31 to i64
  %33 = getelementptr inbounds i32, ptr %25, i64 %32
  %34 = load i32, ptr %33, align 4, !tbaa !3
  br label %35

35:                                               ; preds = %22, %19
  %36 = phi i32 [ %21, %19 ], [ %34, %22 ]
  br label %38

37:                                               ; preds = %2
  br label %38

38:                                               ; preds = %37, %35
  %39 = phi i32 [ %36, %35 ], [ 0, %37 ]
  call void @llvm.lifetime.end.p0(i64 4, ptr %5) #9
  ret i32 %39
}

; Function Attrs: inlinehint nounwind uwtable
define internal ptr @Kit_DsdNtkObj(ptr noundef %0, i32 noundef %1) #4 {
  %3 = alloca ptr, align 8
  %4 = alloca i32, align 4
  store ptr %0, ptr %3, align 8, !tbaa !37
  store i32 %1, ptr %4, align 4, !tbaa !3
  %5 = load i32, ptr %4, align 4, !tbaa !3
  %6 = load ptr, ptr %3, align 8, !tbaa !37
  %7 = getelementptr inbounds nuw %struct.Kit_DsdNtk_t_, ptr %6, i32 0, i32 0
  %8 = load i16, ptr %7, align 8, !tbaa !41
  %9 = zext i16 %8 to i32
  %10 = icmp slt i32 %5, %9
  br i1 %10, label %11, label %12

11:                                               ; preds = %2
  br label %25

12:                                               ; preds = %2
  %13 = load ptr, ptr %3, align 8, !tbaa !37
  %14 = getelementptr inbounds nuw %struct.Kit_DsdNtk_t_, ptr %13, i32 0, i32 6
  %15 = load ptr, ptr %14, align 8, !tbaa !47
  %16 = load i32, ptr %4, align 4, !tbaa !3
  %17 = load ptr, ptr %3, align 8, !tbaa !37
  %18 = getelementptr inbounds nuw %struct.Kit_DsdNtk_t_, ptr %17, i32 0, i32 0
  %19 = load i16, ptr %18, align 8, !tbaa !41
  %20 = zext i16 %19 to i32
  %21 = sub nsw i32 %16, %20
  %22 = sext i32 %21 to i64
  %23 = getelementptr inbounds ptr, ptr %15, i64 %22
  %24 = load ptr, ptr %23, align 8, !tbaa !39
  br label %25

25:                                               ; preds = %12, %11
  %26 = phi ptr [ null, %11 ], [ %24, %12 ]
  ret ptr %26
}

; Function Attrs: inlinehint nounwind uwtable
define internal i32 @Abc_Lit2Var(i32 noundef %0) #4 {
  %2 = alloca i32, align 4
  store i32 %0, ptr %2, align 4, !tbaa !3
  %3 = load i32, ptr %2, align 4, !tbaa !3
  %4 = ashr i32 %3, 1
  ret i32 %4
}

; Function Attrs: nounwind uwtable
define i32 @Kit_DsdGetSupports_rec(ptr noundef %0, i32 noundef %1) #0 {
  %3 = alloca i32, align 4
  %4 = alloca ptr, align 8
  %5 = alloca i32, align 4
  %6 = alloca ptr, align 8
  %7 = alloca i32, align 4
  %8 = alloca i32, align 4
  %9 = alloca i32, align 4
  %10 = alloca i32, align 4
  store ptr %0, ptr %4, align 8, !tbaa !37
  store i32 %1, ptr %5, align 4, !tbaa !3
  call void @llvm.lifetime.start.p0(i64 8, ptr %6) #9
  call void @llvm.lifetime.start.p0(i64 4, ptr %7) #9
  call void @llvm.lifetime.start.p0(i64 4, ptr %8) #9
  call void @llvm.lifetime.start.p0(i64 4, ptr %9) #9
  %11 = load ptr, ptr %4, align 8, !tbaa !37
  %12 = load i32, ptr %5, align 4, !tbaa !3
  %13 = call i32 @Abc_Lit2Var(i32 noundef %12)
  %14 = call ptr @Kit_DsdNtkObj(ptr noundef %11, i32 noundef %13)
  store ptr %14, ptr %6, align 8, !tbaa !39
  %15 = load ptr, ptr %6, align 8, !tbaa !39
  %16 = icmp eq ptr %15, null
  br i1 %16, label %17, label %21

17:                                               ; preds = %2
  %18 = load ptr, ptr %4, align 8, !tbaa !37
  %19 = load i32, ptr %5, align 4, !tbaa !3
  %20 = call i32 @Kit_DsdLitSupport(ptr noundef %18, i32 noundef %19)
  store i32 %20, ptr %3, align 4
  store i32 1, ptr %10, align 4
  br label %63

21:                                               ; preds = %2
  store i32 0, ptr %7, align 4, !tbaa !3
  store i32 0, ptr %8, align 4, !tbaa !3
  br label %22

22:                                               ; preds = %44, %21
  %23 = load i32, ptr %8, align 4, !tbaa !3
  %24 = load ptr, ptr %6, align 8, !tbaa !39
  %25 = load i32, ptr %24, align 4
  %26 = lshr i32 %25, 26
  %27 = icmp ult i32 %23, %26
  br i1 %27, label %28, label %36

28:                                               ; preds = %22
  %29 = load ptr, ptr %6, align 8, !tbaa !39
  %30 = getelementptr inbounds nuw %struct.Kit_DsdObj_t_, ptr %29, i32 0, i32 1
  %31 = load i32, ptr %8, align 4, !tbaa !3
  %32 = zext i32 %31 to i64
  %33 = getelementptr inbounds nuw [0 x i16], ptr %30, i64 0, i64 %32
  %34 = load i16, ptr %33, align 2, !tbaa !58
  %35 = zext i16 %34 to i32
  store i32 %35, ptr %9, align 4, !tbaa !3
  br label %36

36:                                               ; preds = %28, %22
  %37 = phi i1 [ false, %22 ], [ true, %28 ]
  br i1 %37, label %38, label %47

38:                                               ; preds = %36
  %39 = load ptr, ptr %4, align 8, !tbaa !37
  %40 = load i32, ptr %9, align 4, !tbaa !3
  %41 = call i32 @Kit_DsdGetSupports_rec(ptr noundef %39, i32 noundef %40)
  %42 = load i32, ptr %7, align 4, !tbaa !3
  %43 = or i32 %42, %41
  store i32 %43, ptr %7, align 4, !tbaa !3
  br label %44

44:                                               ; preds = %38
  %45 = load i32, ptr %8, align 4, !tbaa !3
  %46 = add i32 %45, 1
  store i32 %46, ptr %8, align 4, !tbaa !3
  br label %22, !llvm.loop !121

47:                                               ; preds = %36
  %48 = load i32, ptr %7, align 4, !tbaa !3
  %49 = load ptr, ptr %4, align 8, !tbaa !37
  %50 = getelementptr inbounds nuw %struct.Kit_DsdNtk_t_, ptr %49, i32 0, i32 5
  %51 = load ptr, ptr %50, align 8, !tbaa !50
  %52 = load ptr, ptr %6, align 8, !tbaa !39
  %53 = load i32, ptr %52, align 4
  %54 = and i32 %53, 63
  %55 = load ptr, ptr %4, align 8, !tbaa !37
  %56 = getelementptr inbounds nuw %struct.Kit_DsdNtk_t_, ptr %55, i32 0, i32 0
  %57 = load i16, ptr %56, align 8, !tbaa !41
  %58 = zext i16 %57 to i32
  %59 = sub nsw i32 %54, %58
  %60 = sext i32 %59 to i64
  %61 = getelementptr inbounds i32, ptr %51, i64 %60
  store i32 %48, ptr %61, align 4, !tbaa !3
  %62 = load i32, ptr %7, align 4, !tbaa !3
  store i32 %62, ptr %3, align 4
  store i32 1, ptr %10, align 4
  br label %63

63:                                               ; preds = %47, %17
  call void @llvm.lifetime.end.p0(i64 4, ptr %9) #9
  call void @llvm.lifetime.end.p0(i64 4, ptr %8) #9
  call void @llvm.lifetime.end.p0(i64 4, ptr %7) #9
  call void @llvm.lifetime.end.p0(i64 8, ptr %6) #9
  %64 = load i32, ptr %3, align 4
  ret i32 %64
}