; Function Attrs: nofree nosync nounwind memory(readwrite, inaccessiblemem: none) uwtable
define i32 @Kit_DsdGetSupports_rec(ptr noundef readonly captures(none) %0, i32 noundef %1) local_unnamed_addr #13 {
  %3 = ashr i32 %1, 1
  %4 = load i16, ptr %0, align 8, !tbaa !34
  %5 = zext i16 %4 to i32
  %6 = icmp slt i32 %3, %5
  br i1 %6, label %Kit_DsdNtkObj.exit.thread, label %Kit_DsdNtkObj.exit

Kit_DsdNtkObj.exit:                               ; preds = %2
  %7 = getelementptr inbounds nuw i8, ptr %0, i64 24
  %8 = load ptr, ptr %7, align 8, !tbaa !40
  %9 = sub nsw i32 %3, %5
  %10 = sext i32 %9 to i64
  %11 = getelementptr inbounds ptr, ptr %8, i64 %10
  %12 = load ptr, ptr %11, align 8, !tbaa !41
  %13 = icmp eq ptr %12, null
  br i1 %13, label %.thread, label %.preheader

.preheader:                                       ; preds = %Kit_DsdNtkObj.exit
  %14 = load i32, ptr %12, align 4
  %.not = icmp ult i32 %14, 67108864
  br i1 %.not, label %.critedge, label %.lr.ph

.lr.ph:                                           ; preds = %.preheader
  %15 = getelementptr inbounds nuw i8, ptr %12, i64 4
  br label %23

Kit_DsdNtkObj.exit.thread:                        ; preds = %2
  %16 = getelementptr inbounds nuw i8, ptr %0, i64 16
  %17 = load ptr, ptr %16, align 8, !tbaa !45
  %.not.i = icmp eq ptr %17, null
  %18 = shl nuw i32 1, %3
  %spec.select = select i1 %.not.i, i32 0, i32 %18
  br label %Kit_DsdLitSupport.exit

.thread:                                          ; preds = %Kit_DsdNtkObj.exit
  %19 = getelementptr inbounds nuw i8, ptr %0, i64 16
  %20 = load ptr, ptr %19, align 8, !tbaa !45
  %.not.i21 = icmp eq ptr %20, null
  br i1 %.not.i21, label %Kit_DsdLitSupport.exit, label %.thread22

.thread22:                                        ; preds = %.thread
  %21 = getelementptr inbounds i32, ptr %20, i64 %10
  %22 = load i32, ptr %21, align 4, !tbaa !20
  br label %Kit_DsdLitSupport.exit

23:                                               ; preds = %.lr.ph, %23
  %indvars.iv = phi i64 [ 0, %.lr.ph ], [ %indvars.iv.next, %23 ]
  %.01923 = phi i32 [ 0, %.lr.ph ], [ %28, %23 ]
  %24 = getelementptr inbounds nuw [0 x i16], ptr %15, i64 0, i64 %indvars.iv
  %25 = load i16, ptr %24, align 2, !tbaa !49
  %26 = zext i16 %25 to i32
  %27 = tail call i32 @Kit_DsdGetSupports_rec(ptr noundef nonnull %0, i32 noundef %26)
  %28 = or i32 %27, %.01923
  %indvars.iv.next = add nuw nsw i64 %indvars.iv, 1
  %29 = load i32, ptr %12, align 4
  %30 = lshr i32 %29, 26
  %31 = zext nneg i32 %30 to i64
  %32 = icmp samesign ult i64 %indvars.iv.next, %31
  br i1 %32, label %23, label %.critedge.loopexit, !llvm.loop !110

.critedge.loopexit:                               ; preds = %23
  %.pre = load i16, ptr %0, align 8, !tbaa !34
  %.pre29 = zext i16 %.pre to i32
  br label %.critedge

.critedge:                                        ; preds = %.critedge.loopexit, %.preheader
  %.pre-phi = phi i32 [ %.pre29, %.critedge.loopexit ], [ %5, %.preheader ]
  %.019.lcssa = phi i32 [ %28, %.critedge.loopexit ], [ 0, %.preheader ]
  %.lcssa = phi i32 [ %29, %.critedge.loopexit ], [ %14, %.preheader ]
  %33 = getelementptr inbounds nuw i8, ptr %0, i64 16
  %34 = load ptr, ptr %33, align 8, !tbaa !45
  %35 = and i32 %.lcssa, 63
  %36 = sub nsw i32 %35, %.pre-phi
  %37 = sext i32 %36 to i64
  %38 = getelementptr inbounds i32, ptr %34, i64 %37
  store i32 %.019.lcssa, ptr %38, align 4, !tbaa !20
  br label %Kit_DsdLitSupport.exit

Kit_DsdLitSupport.exit:                           ; preds = %Kit_DsdNtkObj.exit.thread, %.thread22, %.thread, %.critedge
  %.0 = phi i32 [ %.019.lcssa, %.critedge ], [ %22, %.thread22 ], [ 0, %.thread ], [ %spec.select, %Kit_DsdNtkObj.exit.thread ]
  ret i32 %.0
}